target datalayout = "e-m:e-p270:32:32-p271:32:32-p272:64:64-i64:64-i128:128-f80:128-n8:16:32:64-S128"
target triple = "x86_64-pc-linux-gnu"

%"class.arrow_vendored::double_conversion::Bignum" = type { i16, i16, [128 x i32] }

; Function Attrs: mustprogress nounwind uwtable
define noundef nonnull align 4 dereferenceable(4) ptr @_ZN14arrow_vendored17double_conversion6Bignum8RawBigitEi(ptr noundef nonnull align 4 dereferenceable(516) %0, i32 noundef %1) #0 align 2 {
  %3 = alloca ptr, align 8
  %4 = alloca i32, align 4
  store ptr %0, ptr %3, align 8, !tbaa !3
  store i32 %1, ptr %4, align 4, !tbaa !8
  %5 = load ptr, ptr %3, align 8
  %6 = getelementptr inbounds nuw %"class.arrow_vendored::double_conversion::Bignum", ptr %5, i32 0, i32 2
  %7 = load i32, ptr %4, align 4, !tbaa !8
  %8 = sext i32 %7 to i64
  %9 = getelementptr inbounds [128 x i32], ptr %6, i64 0, i64 %8
  ret ptr %9
}

; Function Attrs: mustprogress nounwind uwtable
define linkonce_odr void @_ZN14arrow_vendored17double_conversion6Bignum14EnsureCapacityEi(i32 noundef %0) #0 comdat align 2 {
  %2 = alloca i32, align 4
  store i32 %0, ptr %2, align 4, !tbaa !8
  %3 = load i32, ptr %2, align 4, !tbaa !8
  %4 = icmp sgt i32 %3, 128
  br i1 %4, label %5, label %6

5:                                                ; preds = %1
  call void @abort() #7
  unreachable

6:                                                ; preds = %1
  ret void
}

; Function Attrs: mustprogress uwtable
define void @_ZN14arrow_vendored17double_conversion6Bignum5AlignERKS1_(ptr noundef nonnull align 4 dereferenceable(516) %0, ptr noundef nonnull align 4 dereferenceable(516) %1) #1 align 2 {
  %3 = alloca ptr, align 8
  %4 = alloca ptr, align 8
  %5 = alloca i32, align 4
  %6 = alloca i32, align 4
  %7 = alloca i32, align 4
  store ptr %0, ptr %3, align 8, !tbaa !3
  store ptr %1, ptr %4, align 8, !tbaa !3
  %8 = load ptr, ptr %3, align 8
  %9 = getelementptr inbounds nuw %"class.arrow_vendored::double_conversion::Bignum", ptr %8, i32 0, i32 1
  %10 = load i16, ptr %9, align 2, !tbaa !14
  %11 = sext i16 %10 to i32
  %12 = load ptr, ptr %4, align 8, !tbaa !3
  %13 = getelementptr inbounds nuw %"class.arrow_vendored::double_conversion::Bignum", ptr %12, i32 0, i32 1
  %14 = load i16, ptr %13, align 2, !tbaa !14
  %15 = sext i16 %14 to i32
  %16 = icmp sgt i32 %11, %15
  br i1 %16, label %17, label %79

17:                                               ; preds = %2
  call void @llvm.lifetime.start.p0(i64 4, ptr %5) #6
  %18 = getelementptr inbounds nuw %"class.arrow_vendored::double_conversion::Bignum", ptr %8, i32 0, i32 1
  %19 = load i16, ptr %18, align 2, !tbaa !14
  %20 = sext i16 %19 to i32
  %21 = load ptr, ptr %4, align 8, !tbaa !3
  %22 = getelementptr inbounds nuw %"class.arrow_vendored::double_conversion::Bignum", ptr %21, i32 0, i32 1
  %23 = load i16, ptr %22, align 2, !tbaa !14
  %24 = sext i16 %23 to i32
  %25 = sub nsw i32 %20, %24
  store i32 %25, ptr %5, align 4, !tbaa !8
  %26 = getelementptr inbounds nuw %"class.arrow_vendored::double_conversion::Bignum", ptr %8, i32 0, i32 0
  %27 = load i16, ptr %26, align 4, !tbaa !12
  %28 = sext i16 %27 to i32
  %29 = load i32, ptr %5, align 4, !tbaa !8
  %30 = add nsw i32 %28, %29
  call void @_ZN14arrow_vendored17double_conversion6Bignum14EnsureCapacityEi(i32 noundef %30)
  call void @llvm.lifetime.start.p0(i64 4, ptr %6) #6
  %31 = getelementptr inbounds nuw %"class.arrow_vendored::double_conversion::Bignum", ptr %8, i32 0, i32 0
  %32 = load i16, ptr %31, align 4, !tbaa !12
  %33 = sext i16 %32 to i32
  %34 = sub nsw i32 %33, 1
  store i32 %34, ptr %6, align 4, !tbaa !8
  br label %35

35:                                               ; preds = %47, %17
  %36 = load i32, ptr %6, align 4, !tbaa !8
  %37 = icmp sge i32 %36, 0
  br i1 %37, label %39, label %38

38:                                               ; preds = %35
  call void @llvm.lifetime.end.p0(i64 4, ptr %6) #6
  br label %50

39:                                               ; preds = %35
  %40 = load i32, ptr %6, align 4, !tbaa !8
  %41 = call noundef nonnull align 4 dereferenceable(4) ptr @_ZN14arrow_vendored17double_conversion6Bignum8RawBigitEi(ptr noundef nonnull align 4 dereferenceable(516) %8, i32 noundef %40)
  %42 = load i32, ptr %41, align 4, !tbaa !8
  %43 = load i32, ptr %6, align 4, !tbaa !8
  %44 = load i32, ptr %5, align 4, !tbaa !8
  %45 = add nsw i32 %43, %44
  %46 = call noundef nonnull align 4 dereferenceable(4) ptr @_ZN14arrow_vendored17double_conversion6Bignum8RawBigitEi(ptr noundef nonnull align 4 dereferenceable(516) %8, i32 noundef %45)
  store i32 %42, ptr %46, align 4, !tbaa !8
  br label %47

47:                                               ; preds = %39
  %48 = load i32, ptr %6, align 4, !tbaa !8
  %49 = add nsw i32 %48, -1
  store i32 %49, ptr %6, align 4, !tbaa !8
  br label %35, !llvm.loop !38

50:                                               ; preds = %38
  call void @llvm.lifetime.start.p0(i64 4, ptr %7) #6
  store i32 0, ptr %7, align 4, !tbaa !8
  br label %51

51:                                               ; preds = %59, %50
  %52 = load i32, ptr %7, align 4, !tbaa !8
  %53 = load i32, ptr %5, align 4, !tbaa !8
  %54 = icmp slt i32 %52, %53
  br i1 %54, label %56, label %55

55:                                               ; preds = %51
  call void @llvm.lifetime.end.p0(i64 4, ptr %7) #6
  br label %62

56:                                               ; preds = %51
  %57 = load i32, ptr %7, align 4, !tbaa !8
  %58 = call noundef nonnull align 4 dereferenceable(4) ptr @_ZN14arrow_vendored17double_conversion6Bignum8RawBigitEi(ptr noundef nonnull align 4 dereferenceable(516) %8, i32 noundef %57)
  store i32 0, ptr %58, align 4, !tbaa !8
  br label %59

59:                                               ; preds = %56
  %60 = load i32, ptr %7, align 4, !tbaa !8
  %61 = add nsw i32 %60, 1
  store i32 %61, ptr %7, align 4, !tbaa !8
  br label %51, !llvm.loop !39

62:                                               ; preds = %55
  %63 = load i32, ptr %5, align 4, !tbaa !8
  %64 = trunc i32 %63 to i16
  %65 = sext i16 %64 to i32
  %66 = getelementptr inbounds nuw %"class.arrow_vendored::double_conversion::Bignum", ptr %8, i32 0, i32 0
  %67 = load i16, ptr %66, align 4, !tbaa !12
  %68 = sext i16 %67 to i32
  %69 = add nsw i32 %68, %65
  %70 = trunc i32 %69 to i16
  store i16 %70, ptr %66, align 4, !tbaa !12
  %71 = load i32, ptr %5, align 4, !tbaa !8
  %72 = trunc i32 %71 to i16
  %73 = sext i16 %72 to i32
  %74 = getelementptr inbounds nuw %"class.arrow_vendored::double_conversion::Bignum", ptr %8, i32 0, i32 1
  %75 = load i16, ptr %74, align 2, !tbaa !14
  %76 = sext i16 %75 to i32
  %77 = sub nsw i32 %76, %73
  %78 = trunc i32 %77 to i16
  store i16 %78, ptr %74, align 2, !tbaa !14
  call void @llvm.lifetime.end.p0(i64 4, ptr %5) #6
  br label %79

79:                                               ; preds = %62, %2
  ret void
}